#include <math.h>
#include <stdio.h>
#include <stdlib.h>
#include <string.h>
#define LEN 100
#define ASCII 100
#define MAX_N 100
#define MAX_N 100
#define L 100
#define MAX 100
#define ASC 100
#define null 0
#define Len 100
#define M 100
#define SUM 100
#define NUMBER 100
#define SIZE 100
#define N 100
#define Max 100
#define X 100
#define Y 100
#define A 100
#define MAXN 100
#define MAXSIZE 100
int main()
{
	int n,i,j,a[N],s[N],max=0;
	scanf("%d",&n);
	for(i=0;i<n;i++)
		scanf("%d",&a[i]);
	for(i=0;i<n;i++)
		s[i]=1;
    for(i=n-2;i>=0;i--)
		for(j=i+1;j<n;j++)
			if(a[j]<=a[i]&&s[i]<s[j]+1)
				s[i]=s[j]+1;
	for(i=0;i<n-1;i++)
		max=(max>s[i])?max:s[i];
    printf("%d",max);
	return 0;
}